target datalayout = "e-m:e-p270:32:32-p271:32:32-p272:64:64-i64:64-i128:128-f80:128-n8:16:32:64-S128"
target triple = "x86_64-pc-linux-gnu"

%"class.icu_77::UnicodeString" = type { %"class.icu_77::Replaceable", %"union.icu_77::UnicodeString::StackBufferOrFields" }
%"class.icu_77::Replaceable" = type { %"class.icu_77::UObject" }
%"class.icu_77::UObject" = type { ptr }
%"union.icu_77::UnicodeString::StackBufferOrFields" = type { %struct.anon.0, [32 x i8] }
%struct.anon.0 = type { i16, i32, i32, ptr }
%"class.icu_77::TimeZoneFormat" = type { %"class.icu_77::Format", %"class.icu_77::Locale", [4 x i8], ptr, ptr, %"class.icu_77::UnicodeString", [6 x %"class.icu_77::UnicodeString"], [10 x i32], %"class.icu_77::UnicodeString", i32, %"class.icu_77::UnicodeString", %"class.icu_77::UnicodeString", [6 x ptr], i8, ptr }
%"class.icu_77::Format" = type { %"class.icu_77::UObject", ptr, ptr }
%"class.icu_77::Locale" = type <{ %"class.icu_77::UObject", [12 x i8], [6 x i8], [4 x i8], [2 x i8], i32, [4 x i8], ptr, [157 x i8], [3 x i8], ptr, i8, [7 x i8] }>

; Function Attrs: mustprogress uwtable
define noundef nonnull align 8 dereferenceable(64) ptr @_ZNK6icu_7714TimeZoneFormat13getTimeZoneIDEPKNS_13TimeZoneNames19MatchInfoCollectionEiRNS_13UnicodeStringE(ptr noundef nonnull align 8 dereferenceable(1024) %0, ptr noundef %1, i32 noundef %2, ptr noundef nonnull align 8 dereferenceable(64) %3) #1 align 2 personality ptr @__gxx_personality_v0 {
  %5 = alloca ptr, align 8
  %6 = alloca ptr, align 8
  %7 = alloca i32, align 4
  %8 = alloca ptr, align 8
  %9 = alloca [32 x i16], align 16
  %10 = alloca %"class.icu_77::UnicodeString", align 8
  %11 = alloca ptr, align 8
  %12 = alloca i32, align 4
  store ptr %0, ptr %5, align 8, !tbaa !39
  store ptr %1, ptr %6, align 8, !tbaa !134
  store i32 %2, ptr %7, align 4, !tbaa !14
  store ptr %3, ptr %8, align 8, !tbaa !33
  %13 = load ptr, ptr %5, align 8
  %14 = load ptr, ptr %6, align 8, !tbaa !134
  %15 = load i32, ptr %7, align 4, !tbaa !14
  %16 = load ptr, ptr %8, align 8, !tbaa !33
  %17 = call noundef signext i8 @_ZNK6icu_7713TimeZoneNames19MatchInfoCollection15getTimeZoneIDAtEiRNS_13UnicodeStringE(ptr noundef nonnull align 8 dereferenceable(16) %14, i32 noundef %15, ptr noundef nonnull align 8 dereferenceable(64) %16)
  %18 = icmp ne i8 %17, 0
  br i1 %18, label %42, label %19

19:                                               ; preds = %4
  call void @llvm.lifetime.start.p0(i64 64, ptr %9) #15
  call void @llvm.lifetime.start.p0(i64 64, ptr %10) #15
  %20 = getelementptr inbounds [32 x i16], ptr %9, i64 0, i64 0
  call void @_ZN6icu_7713UnicodeStringC1EPDsii(ptr noundef nonnull align 8 dereferenceable(64) %10, ptr noundef %20, i32 noundef 0, i32 noundef 32)
  %21 = load ptr, ptr %6, align 8, !tbaa !134
  %22 = load i32, ptr %7, align 4, !tbaa !14
  %23 = invoke noundef signext i8 @_ZNK6icu_7713TimeZoneNames19MatchInfoCollection15getMetaZoneIDAtEiRNS_13UnicodeStringE(ptr noundef nonnull align 8 dereferenceable(16) %21, i32 noundef %22, ptr noundef nonnull align 8 dereferenceable(64) %10)
          to label %24 unwind label %37

24:                                               ; preds = %19
  %25 = icmp ne i8 %23, 0
  br i1 %25, label %26, label %41

26:                                               ; preds = %24
  %27 = getelementptr inbounds nuw %"class.icu_77::TimeZoneFormat", ptr %13, i32 0, i32 3
  %28 = load ptr, ptr %27, align 8, !tbaa !43
  %29 = getelementptr inbounds nuw %"class.icu_77::TimeZoneFormat", ptr %13, i32 0, i32 2
  %30 = getelementptr inbounds [4 x i8], ptr %29, i64 0, i64 0
  %31 = load ptr, ptr %8, align 8, !tbaa !33
  %32 = load ptr, ptr %28, align 8, !tbaa !25
  %33 = getelementptr inbounds ptr, ptr %32, i64 8
  %34 = load ptr, ptr %33, align 8
  %35 = invoke noundef nonnull align 8 dereferenceable(64) ptr %34(ptr noundef nonnull align 8 dereferenceable(8) %28, ptr noundef nonnull align 8 dereferenceable(64) %10, ptr noundef %30, ptr noundef nonnull align 8 dereferenceable(64) %31)
          to label %36 unwind label %37

36:                                               ; preds = %26
  br label %41

37:                                               ; preds = %26, %19
  %38 = landingpad { ptr, i32 }
          cleanup
  %39 = extractvalue { ptr, i32 } %38, 0
  store ptr %39, ptr %11, align 8
  %40 = extractvalue { ptr, i32 } %38, 1
  store i32 %40, ptr %12, align 4
  call void @_ZN6icu_7713UnicodeStringD1Ev(ptr noundef nonnull align 8 dereferenceable(64) %10) #15
  call void @llvm.lifetime.end.p0(i64 64, ptr %10) #15
  call void @llvm.lifetime.end.p0(i64 64, ptr %9) #15
  br label %44

41:                                               ; preds = %36, %24
  call void @_ZN6icu_7713UnicodeStringD1Ev(ptr noundef nonnull align 8 dereferenceable(64) %10) #15
  call void @llvm.lifetime.end.p0(i64 64, ptr %10) #15
  call void @llvm.lifetime.end.p0(i64 64, ptr %9) #15
  br label %42

42:                                               ; preds = %41, %4
  %43 = load ptr, ptr %8, align 8, !tbaa !33
  ret ptr %43

44:                                               ; preds = %37
  %45 = load ptr, ptr %11, align 8
  %46 = load i32, ptr %12, align 4
  %47 = insertvalue { ptr, i32 } poison, ptr %45, 0
  %48 = insertvalue { ptr, i32 } %47, i32 %46, 1
  resume { ptr, i32 } %48
}