; Function Attrs: mustprogress uwtable
define noundef nonnull align 8 dereferenceable(64) ptr @_ZNK6icu_7714TimeZoneFormat13getTimeZoneIDEPKNS_13TimeZoneNames19MatchInfoCollectionEiRNS_13UnicodeStringE(ptr noundef nonnull align 8 dereferenceable(1024) %0, ptr noundef nonnull %1, i32 noundef %2, ptr noundef nonnull returned align 8 dereferenceable(64) %3) local_unnamed_addr #1 align 2 personality ptr @__gxx_personality_v0 {
  %5 = alloca [32 x i16], align 16
  %6 = alloca %"class.icu_77::UnicodeString", align 8
  %7 = tail call noundef signext i8 @_ZNK6icu_7713TimeZoneNames19MatchInfoCollection15getTimeZoneIDAtEiRNS_13UnicodeStringE(ptr noundef nonnull align 8 dereferenceable(16) %1, i32 noundef %2, ptr noundef nonnull align 8 dereferenceable(64) %3)
  %.not = icmp eq i8 %7, 0
  br i1 %.not, label %8, label %22

8:                                                ; preds = %4
  call void @llvm.lifetime.start.p0(i64 64, ptr nonnull %5) #22
  call void @llvm.lifetime.start.p0(i64 64, ptr nonnull %6) #22
  call void @_ZN6icu_7713UnicodeStringC1EPDsii(ptr noundef nonnull align 8 dereferenceable(64) %6, ptr noundef nonnull %5, i32 noundef 0, i32 noundef 32)
  %9 = invoke noundef signext i8 @_ZNK6icu_7713TimeZoneNames19MatchInfoCollection15getMetaZoneIDAtEiRNS_13UnicodeStringE(ptr noundef nonnull align 8 dereferenceable(16) %1, i32 noundef %2, ptr noundef nonnull align 8 dereferenceable(64) %6)
          to label %10 unwind label %19

10:                                               ; preds = %8
  %.not9 = icmp eq i8 %9, 0
  br i1 %.not9, label %21, label %11

11:                                               ; preds = %10
  %12 = getelementptr inbounds nuw i8, ptr %0, i64 256
  %13 = load ptr, ptr %12, align 8, !tbaa !41
  %14 = getelementptr inbounds nuw i8, ptr %0, i64 248
  %15 = load ptr, ptr %13, align 8, !tbaa !15
  %16 = getelementptr inbounds nuw i8, ptr %15, i64 64
  %17 = load ptr, ptr %16, align 8
  %18 = invoke noundef nonnull align 8 dereferenceable(64) ptr %17(ptr noundef nonnull align 8 dereferenceable(8) %13, ptr noundef nonnull align 8 dereferenceable(64) %6, ptr noundef nonnull %14, ptr noundef nonnull align 8 dereferenceable(64) %3)
          to label %21 unwind label %19

19:                                               ; preds = %11, %8
  %20 = landingpad { ptr, i32 }
          cleanup
  call void @_ZN6icu_7713UnicodeStringD1Ev(ptr noundef nonnull align 8 dereferenceable(64) %6) #22
  call void @llvm.lifetime.end.p0(i64 64, ptr nonnull %6) #22
  call void @llvm.lifetime.end.p0(i64 64, ptr nonnull %5) #22
  resume { ptr, i32 } %20

21:                                               ; preds = %11, %10
  call void @_ZN6icu_7713UnicodeStringD1Ev(ptr noundef nonnull align 8 dereferenceable(64) %6) #22
  call void @llvm.lifetime.end.p0(i64 64, ptr nonnull %6) #22
  call void @llvm.lifetime.end.p0(i64 64, ptr nonnull %5) #22
  br label %22

22:                                               ; preds = %21, %4
  ret ptr %3
}